; ModuleID = '46/2108.c'
source_filename = "46/2108.c"
target datalayout = "e-m:e-p270:32:32-p271:32:32-p272:64:64-i64:64-f80:128-n8:16:32:64-S128"
target triple = "x86_64-pc-linux-gnu"

@.str = private unnamed_addr constant [6 x i8] c"%d %d\00", align 1
@.str.1 = private unnamed_addr constant [3 x i8] c"%d\00", align 1
@.str.2 = private unnamed_addr constant [4 x i8] c"%d\0A\00", align 1

; Function Attrs: noinline nounwind uwtable
define dso_local i32 @main() #0 {
  %1 = alloca i32, align 4
  %2 = alloca i32, align 4
  %3 = alloca i32, align 4
  %4 = alloca i32, align 4
  %5 = alloca i32, align 4
  %6 = alloca i32, align 4
  %7 = alloca i32, align 4
  %8 = alloca i32, align 4
  %9 = alloca [100 x [100 x i32]], align 16
  %10 = alloca i32, align 4
  %11 = alloca i32, align 4
  store i32 0, i32* %1, align 4
  store i32 0, i32* %4, align 4
  store i32 0, i32* %5, align 4
  store i32 0, i32* %7, align 4
  store i32 0, i32* %8, align 4
  %12 = call i32 (i8*, ...) @__isoc99_scanf(i8* getelementptr inbounds ([6 x i8], [6 x i8]* @.str, i64 0, i64 0), i32* %2, i32* %3)
  %13 = load i32, i32* %2, align 4
  %14 = load i32, i32* %3, align 4
  %15 = mul nsw i32 %13, %14
  store i32 %15, i32* %6, align 4
  store i32 0, i32* %10, align 4
  br label %16

16:                                               ; preds = %37, %0
  %17 = load i32, i32* %10, align 4
  %18 = load i32, i32* %2, align 4
  %19 = icmp slt i32 %17, %18
  br i1 %19, label %20, label %40

20:                                               ; preds = %16
  store i32 0, i32* %11, align 4
  br label %21

21:                                               ; preds = %33, %20
  %22 = load i32, i32* %11, align 4
  %23 = load i32, i32* %3, align 4
  %24 = icmp slt i32 %22, %23
  br i1 %24, label %25, label %36

25:                                               ; preds = %21
  %26 = load i32, i32* %10, align 4
  %27 = sext i32 %26 to i64
  %28 = getelementptr inbounds [100 x [100 x i32]], [100 x [100 x i32]]* %9, i64 0, i64 %27
  %29 = load i32, i32* %11, align 4
  %30 = sext i32 %29 to i64
  %31 = getelementptr inbounds [100 x i32], [100 x i32]* %28, i64 0, i64 %30
  %32 = call i32 (i8*, ...) @__isoc99_scanf(i8* getelementptr inbounds ([3 x i8], [3 x i8]* @.str.1, i64 0, i64 0), i32* %31)
  br label %33

33:                                               ; preds = %25
  %34 = load i32, i32* %11, align 4
  %35 = add nsw i32 %34, 1
  store i32 %35, i32* %11, align 4
  br label %21

36:                                               ; preds = %21
  br label %37

37:                                               ; preds = %36
  %38 = load i32, i32* %10, align 4
  %39 = add nsw i32 %38, 1
  store i32 %39, i32* %10, align 4
  br label %16

40:                                               ; preds = %16
  br label %41

41:                                               ; preds = %159, %40
  %42 = load i32, i32* %7, align 4
  %43 = load i32, i32* %6, align 4
  %44 = icmp slt i32 %42, %43
  br i1 %44, label %45, label %166

45:                                               ; preds = %41
  %46 = load i32, i32* %5, align 4
  store i32 %46, i32* %5, align 4
  br label %47

47:                                               ; preds = %64, %45
  %48 = load i32, i32* %5, align 4
  %49 = load i32, i32* %3, align 4
  %50 = load i32, i32* %8, align 4
  %51 = sub nsw i32 %49, %50
  %52 = icmp slt i32 %48, %51
  br i1 %52, label %53, label %67

53:                                               ; preds = %47
  %54 = load i32, i32* %4, align 4
  %55 = sext i32 %54 to i64
  %56 = getelementptr inbounds [100 x [100 x i32]], [100 x [100 x i32]]* %9, i64 0, i64 %55
  %57 = load i32, i32* %5, align 4
  %58 = sext i32 %57 to i64
  %59 = getelementptr inbounds [100 x i32], [100 x i32]* %56, i64 0, i64 %58
  %60 = load i32, i32* %59, align 4
  %61 = call i32 (i8*, ...) @printf(i8* getelementptr inbounds ([4 x i8], [4 x i8]* @.str.2, i64 0, i64 0), i32 %60)
  %62 = load i32, i32* %7, align 4
  %63 = add nsw i32 %62, 1
  store i32 %63, i32* %7, align 4
  br label %64

64:                                               ; preds = %53
  %65 = load i32, i32* %5, align 4
  %66 = add nsw i32 %65, 1
  store i32 %66, i32* %5, align 4
  br label %47

67:                                               ; preds = %47
  %68 = load i32, i32* %7, align 4
  %69 = load i32, i32* %6, align 4
  %70 = icmp sge i32 %68, %69
  br i1 %70, label %71, label %72

71:                                               ; preds = %67
  br label %166

72:                                               ; preds = %67
  %73 = load i32, i32* %5, align 4
  %74 = sub nsw i32 %73, 1
  store i32 %74, i32* %5, align 4
  %75 = load i32, i32* %4, align 4
  %76 = add nsw i32 %75, 1
  store i32 %76, i32* %4, align 4
  br label %77

77:                                               ; preds = %94, %72
  %78 = load i32, i32* %4, align 4
  %79 = load i32, i32* %2, align 4
  %80 = load i32, i32* %8, align 4
  %81 = sub nsw i32 %79, %80
  %82 = icmp slt i32 %78, %81
  br i1 %82, label %83, label %97

83:                                               ; preds = %77
  %84 = load i32, i32* %4, align 4
  %85 = sext i32 %84 to i64
  %86 = getelementptr inbounds [100 x [100 x i32]], [100 x [100 x i32]]* %9, i64 0, i64 %85
  %87 = load i32, i32* %5, align 4
  %88 = sext i32 %87 to i64
  %89 = getelementptr inbounds [100 x i32], [100 x i32]* %86, i64 0, i64 %88
  %90 = load i32, i32* %89, align 4
  %91 = call i32 (i8*, ...) @printf(i8* getelementptr inbounds ([4 x i8], [4 x i8]* @.str.2, i64 0, i64 0), i32 %90)
  %92 = load i32, i32* %7, align 4
  %93 = add nsw i32 %92, 1
  store i32 %93, i32* %7, align 4
  br label %94

94:                                               ; preds = %83
  %95 = load i32, i32* %4, align 4
  %96 = add nsw i32 %95, 1
  store i32 %96, i32* %4, align 4
  br label %77

97:                                               ; preds = %77
  %98 = load i32, i32* %7, align 4
  %99 = load i32, i32* %6, align 4
  %100 = icmp sge i32 %98, %99
  br i1 %100, label %101, label %102

101:                                              ; preds = %97
  br label %166

102:                                              ; preds = %97
  %103 = load i32, i32* %4, align 4
  %104 = sub nsw i32 %103, 1
  store i32 %104, i32* %4, align 4
  %105 = load i32, i32* %5, align 4
  %106 = sub nsw i32 %105, 1
  store i32 %106, i32* %5, align 4
  br label %107

107:                                              ; preds = %122, %102
  %108 = load i32, i32* %5, align 4
  %109 = load i32, i32* %8, align 4
  %110 = icmp sge i32 %108, %109
  br i1 %110, label %111, label %125

111:                                              ; preds = %107
  %112 = load i32, i32* %4, align 4
  %113 = sext i32 %112 to i64
  %114 = getelementptr inbounds [100 x [100 x i32]], [100 x [100 x i32]]* %9, i64 0, i64 %113
  %115 = load i32, i32* %5, align 4
  %116 = sext i32 %115 to i64
  %117 = getelementptr inbounds [100 x i32], [100 x i32]* %114, i64 0, i64 %116
  %118 = load i32, i32* %117, align 4
  %119 = call i32 (i8*, ...) @printf(i8* getelementptr inbounds ([4 x i8], [4 x i8]* @.str.2, i64 0, i64 0), i32 %118)
  %120 = load i32, i32* %7, align 4
  %121 = add nsw i32 %120, 1
  store i32 %121, i32* %7, align 4
  br label %122

122:                                              ; preds = %111
  %123 = load i32, i32* %5, align 4
  %124 = add nsw i32 %123, -1
  store i32 %124, i32* %5, align 4
  br label %107

125:                                              ; preds = %107
  %126 = load i32, i32* %7, align 4
  %127 = load i32, i32* %6, align 4
  %128 = icmp sge i32 %126, %127
  br i1 %128, label %129, label %130

129:                                              ; preds = %125
  br label %166

130:                                              ; preds = %125
  %131 = load i32, i32* %5, align 4
  %132 = add nsw i32 %131, 1
  store i32 %132, i32* %5, align 4
  %133 = load i32, i32* %4, align 4
  %134 = sub nsw i32 %133, 1
  store i32 %134, i32* %4, align 4
  br label %135

135:                                              ; preds = %151, %130
  %136 = load i32, i32* %4, align 4
  %137 = load i32, i32* %8, align 4
  %138 = add nsw i32 %137, 1
  %139 = icmp sge i32 %136, %138
  br i1 %139, label %140, label %154

140:                                              ; preds = %135
  %141 = load i32, i32* %4, align 4
  %142 = sext i32 %141 to i64
  %143 = getelementptr inbounds [100 x [100 x i32]], [100 x [100 x i32]]* %9, i64 0, i64 %142
  %144 = load i32, i32* %5, align 4
  %145 = sext i32 %144 to i64
  %146 = getelementptr inbounds [100 x i32], [100 x i32]* %143, i64 0, i64 %145
  %147 = load i32, i32* %146, align 4
  %148 = call i32 (i8*, ...) @printf(i8* getelementptr inbounds ([4 x i8], [4 x i8]* @.str.2, i64 0, i64 0), i32 %147)
  %149 = load i32, i32* %7, align 4
  %150 = add nsw i32 %149, 1
  store i32 %150, i32* %7, align 4
  br label %151

151:                                              ; preds = %140
  %152 = load i32, i32* %4, align 4
  %153 = add nsw i32 %152, -1
  store i32 %153, i32* %4, align 4
  br label %135

154:                                              ; preds = %135
  %155 = load i32, i32* %7, align 4
  %156 = load i32, i32* %6, align 4
  %157 = icmp sge i32 %155, %156
  br i1 %157, label %158, label %159

158:                                              ; preds = %154
  br label %166

159:                                              ; preds = %154
  %160 = load i32, i32* %4, align 4
  %161 = add nsw i32 %160, 1
  store i32 %161, i32* %4, align 4
  %162 = load i32, i32* %5, align 4
  %163 = add nsw i32 %162, 1
  store i32 %163, i32* %5, align 4
  %164 = load i32, i32* %8, align 4
  %165 = add nsw i32 %164, 1
  store i32 %165, i32* %8, align 4
  br label %41

166:                                              ; preds = %158, %129, %101, %71, %41
  ret i32 0
}

declare dso_local i32 @__isoc99_scanf(i8*, ...) #1

declare dso_local i32 @printf(i8*, ...) #1


!llvm.module.flags = !{!0}
!llvm.ident = !{!1}

!0 = !{i32 1, !"wchar_size", i32 4}
!1 = !{!"clang version 10.0.0-4ubuntu1 "}
